; Function Attrs: mustprogress uwtable
define void @_ZN10open_spiel26Multiway3max_1_2GameStringERKNSt7__cxx1112basic_stringIcSt11char_traitsIcESaIcEEEiii(ptr dead_on_unwind noalias writable sret(%"class.std::__cxx11::basic_string") align 8 %0, ptr noundef nonnull align 8 dereferenceable(32) %1, i32 noundef %2, i32 noundef %3, i32 noundef %4) local_unnamed_addr #0 {
_ZN4absl7debian219str_format_internal18FormatSpecTemplateIJLNS0_23FormatConversionCharSetE131067ELS3_131067ELS3_131067ELS3_4EEEC2EUa9enable_ifIXclL_ZNS1_15ValidFormatImplIJLS3_131067ELS3_131067ELS3_131067ELS3_4EEEEbNS0_11string_viewEEfL0p_EEEPKc.exit:
  %5 = alloca [4 x %"class.absl::debian2::str_format_internal::FormatArgImpl"], align 8
  call void @llvm.lifetime.start.p0(i64 64, ptr nonnull %5)
  %.sroa.0.0.insert.ext.i.i.i.i = zext i32 %2 to i64
  %6 = inttoptr i64 %.sroa.0.0.insert.ext.i.i.i.i to ptr
  store ptr %6, ptr %5, align 8, !noalias !10
  %7 = getelementptr inbounds nuw i8, ptr %5, i64 8
  store ptr @_ZN4absl7debian219str_format_internal13FormatArgImpl8DispatchIiEEbNS2_4DataENS1_24FormatConversionSpecImplEPv, ptr %7, align 8, !noalias !10
  %8 = getelementptr inbounds nuw i8, ptr %5, i64 16
  %.sroa.0.0.insert.ext.i.i.i8.i = zext i32 %3 to i64
  %9 = inttoptr i64 %.sroa.0.0.insert.ext.i.i.i8.i to ptr
  store ptr %9, ptr %8, align 8, !noalias !10
  %10 = getelementptr inbounds nuw i8, ptr %5, i64 24
  store ptr @_ZN4absl7debian219str_format_internal13FormatArgImpl8DispatchIiEEbNS2_4DataENS1_24FormatConversionSpecImplEPv, ptr %10, align 8, !noalias !10
  %11 = getelementptr inbounds nuw i8, ptr %5, i64 32
  %.sroa.0.0.insert.ext.i.i.i10.i = zext i32 %4 to i64
  %12 = inttoptr i64 %.sroa.0.0.insert.ext.i.i.i10.i to ptr
  store ptr %12, ptr %11, align 8, !noalias !10
  %13 = getelementptr inbounds nuw i8, ptr %5, i64 40
  store ptr @_ZN4absl7debian219str_format_internal13FormatArgImpl8DispatchIiEEbNS2_4DataENS1_24FormatConversionSpecImplEPv, ptr %13, align 8, !noalias !10
  %14 = getelementptr inbounds nuw i8, ptr %5, i64 48
  store ptr %1, ptr %14, align 8, !noalias !10
  %15 = getelementptr inbounds nuw i8, ptr %5, i64 56
  store ptr @_ZN4absl7debian219str_format_internal13FormatArgImpl8DispatchINSt7__cxx1112basic_stringIcSt11char_traitsIcESaIcEEEEEbNS2_4DataENS1_24FormatConversionSpecImplEPv, ptr %15, align 8, !noalias !10
  call void @_ZN4absl7debian219str_format_internal10FormatPackB5cxx11ENS1_21UntypedFormatSpecImplENS0_4SpanIKNS1_13FormatArgImplEEE(ptr dead_on_unwind writable sret(%"class.std::__cxx11::basic_string") align 8 %0, ptr nonnull @.str.2, i64 186, ptr nonnull %5, i64 4)
  call void @llvm.lifetime.end.p0(i64 64, ptr nonnull %5)
  ret void
}